ccopy_reg
_reconstructor
p1
(cthe_fluid_solver_2d
The_Fluid_Solver_2D
p2
c__builtin__
object
p3
NtRp4
(dp5
S'LABEL'
p6
S'explicit_cavity_flow'
p7
sS'DZ'
p8
S'NA'
p9
sS'DX'
p10
F0.050000000000000003
sS'DY'
p11
F0.050000000000000003
sS'XMIN'
p12
F0
sS'DT'
p13
F0.00037500000000000001
sS'YMIN'
p14
F0
sS'NI'
p15
I50
sS'NY'
p16
I41
sS'NX'
p17
I41
sS'PLT_TYP'
p18
S'quiver contours include boundaries'
p19
sS'NZ'
p20
g9
sS'XMAX'
p21
F2
sS'NT'
p22
I800
sS'NU'
p23
F2
sS'SAVE_FREQ'
p24
I8
sS'S'
F0.29999999999999999
sS'YMAX'
p25
F2
sS'cycle_start'
p26
I1
sS'MAE'
p27
F1.0000000000000001e-09
sS'RHO'
p28
F1
sS'MAX_CYC_MAG'
p29
I9
sb.