ccopy_reg
_reconstructor
p1
(cthe_fluid_solver_2d
The_Fluid_Solver_2D
p2
c__builtin__
object
p3
NtRp4
(dp5
S'cycle_start'
p6
I1
sS'PLT_TYP'
p7
S'quiver contours include boundaries'
p8
sS'RHO'
p9
F1
sS'NI'
p10
I50
sS'MAX_CYC_MAG'
p11
I9
sS'LABEL'
p12
S'implicit_cavity_flow_N81_Re100'
p13
sS'SAVE_FREQ'
p14
I8
sS'NX'
p15
I81
sS'NY'
p16
I81
sS'NZ'
p17
S'NA'
p18
sS'XMAX'
p19
F2
sS'DZ'
p20
g18
sS'DX'
p21
F0.025000000000000001
sS'DY'
p22
F0.025000000000000001
sS'XMIN'
p23
F0
sS'MAE'
p24
F0.0001
sS'DT'
p25
F0.001
sS'YMIN'
p26
F0
sS'NT'
p27
I800
sS'NU'
p28
F0.01
sS'YMAX'
p29
F2
sb.