ccopy_reg
_reconstructor
p1
(cthe_fluid_solver_2d
The_Fluid_Solver_2D
p2
c__builtin__
object
p3
NtRp4
(dp5
S'cycle_start'
p6
I1
sS'XMAX'
p7
F2
sS'SAVE_FREQ'
p8
I8
sS'MAX_CYC_MAG'
p9
I9
sS'S'
F0.20000000000000001
sS'LABEL'
p10
S'hat_periodic_boundaries'
p11
sS'NX'
p12
I81
sS'NY'
p13
I81
sS'NZ'
p14
S'NA'
p15
sS'DZ'
p16
g15
sS'DX'
p17
F0.025000000000000001
sS'DY'
p18
F0.025000000000000001
sS'XMIN'
p19
F0
sS'PLT_TYP'
p20
S'surface velocity'
p21
sS'DT'
p22
F0.005000000000000001
sS'YMIN'
p23
F0
sS'NT'
p24
I800
sS'YMAX'
p25
F2
sb.