ccopy_reg
_reconstructor
p1
(cthe_fluid_solver_1d
The_Fluid_Solver_1D
p2
c__builtin__
object
p3
NtRp4
(dp5
S'C'
F1
sS'XMAX'
p6
F2
sS'PLT_FILE_EXT'
p7
S'.png'
p8
sS'MAX_CYC_MAG'
p9
I3
sS'S'
F0.45000000000000001
sS'LABEL'
p10
S'hat'
p11
sS'NX'
p12
I41
sS'NY'
p13
S'NA'
p14
sS'NZ'
p15
g14
sS'DZ'
p16
g14
sS'DX'
p17
F0.050000000000000003
sS'DY'
p18
g14
sS'XMIN'
p19
F0
sS'DT'
p20
F0.022500000000000003
sS'NT'
p21
I25
sS'OUT_FILE_EXT'
p22
S'.p'
p23
sb.