ccopy_reg
_reconstructor
p1
(cthe_fluid_solver_1d
The_Fluid_Solver_1D
p2
c__builtin__
object
p3
NtRp4
(dp5
S'SAVE_FREQ'
p6
I10
sS'C'
F1
sS'XMAX'
p7
F1
sS'PLT_FILE_EXT'
p8
S'.png'
p9
sS'MAX_CYC_MAG'
p10
I4
sS'S'
F0.25
sS'LABEL'
p11
S'hat_periodic_boundaries'
p12
sS'NX'
p13
I41
sS'NY'
p14
S'NA'
p15
sS'NZ'
p16
g15
sS'DZ'
p17
g15
sS'DX'
p18
F0.025000000000000001
sS'DY'
p19
g15
sS'XMIN'
p20
F0
sS'DT'
p21
F0.0062500000000000003
sS'NT'
p22
I100
sS'OUT_FILE_EXT'
p23
S'.p'
p24
sb.