ccopy_reg
_reconstructor
p1
(cthe_fluid_solver_2d
The_Fluid_Solver_2D
p2
c__builtin__
object
p3
NtRp4
(dp5
S'cycle_start'
p6
I1
sS'C'
F1
sS'XMAX'
p7
F2
sS'SAVE_FREQ'
p8
I50
sS'MAX_CYC_MAG'
p9
I9
sS'PLT_FILE_EXT'
p10
S'.png'
p11
sS'S'
F0.20000000000000001
sS'LABEL'
p12
S'hat_fixed_boundaries'
p13
sS'NX'
p14
I81
sS'NY'
p15
I81
sS'NZ'
p16
S'NA'
p17
sS'DZ'
p18
g17
sS'DX'
p19
F0.025000000000000001
sS'DY'
p20
F0.025000000000000001
sS'XMIN'
p21
F0
sS'PLT_TYP'
p22
S'surface velocity'
p23
sS'DT'
p24
F0.005000000000000001
sS'YMIN'
p25
F0
sS'NT'
p26
I400
sS'YMAX'
p27
F2
sb.